target datalayout = "e-m:e-p270:32:32-p271:32:32-p272:64:64-i64:64-i128:128-f80:128-n8:16:32:64-S128"
target triple = "x86_64-pc-linux-gnu"

; Function Attrs: mustprogress nounwind uwtable
define ptr @u_strncpy_77(ptr noundef %0, ptr noundef %1, i32 noundef %2) #3 {
  %4 = alloca ptr, align 8
  %5 = alloca ptr, align 8
  %6 = alloca i32, align 4
  %7 = alloca ptr, align 8
  store ptr %0, ptr %4, align 8, !tbaa !3
  store ptr %1, ptr %5, align 8, !tbaa !3
  store i32 %2, ptr %6, align 4, !tbaa !8
  call void @llvm.lifetime.start.p0(i64 8, ptr %7) #7
  %8 = load ptr, ptr %4, align 8, !tbaa !3
  store ptr %8, ptr %7, align 8, !tbaa !3
  br label %9

9:                                                ; preds = %22, %3
  %10 = load i32, ptr %6, align 4, !tbaa !8
  %11 = icmp sgt i32 %10, 0
  br i1 %11, label %12, label %20

12:                                               ; preds = %9
  %13 = load ptr, ptr %5, align 8, !tbaa !3
  %14 = getelementptr inbounds nuw i16, ptr %13, i32 1
  store ptr %14, ptr %5, align 8, !tbaa !3
  %15 = load i16, ptr %13, align 2, !tbaa !10
  %16 = load ptr, ptr %4, align 8, !tbaa !3
  %17 = getelementptr inbounds nuw i16, ptr %16, i32 1
  store ptr %17, ptr %4, align 8, !tbaa !3
  store i16 %15, ptr %16, align 2, !tbaa !10
  %18 = zext i16 %15 to i32
  %19 = icmp ne i32 %18, 0
  br label %20

20:                                               ; preds = %12, %9
  %21 = phi i1 [ false, %9 ], [ %19, %12 ]
  br i1 %21, label %22, label %25

22:                                               ; preds = %20
  %23 = load i32, ptr %6, align 4, !tbaa !8
  %24 = add nsw i32 %23, -1
  store i32 %24, ptr %6, align 4, !tbaa !8
  br label %9, !llvm.loop !61

25:                                               ; preds = %20
  %26 = load ptr, ptr %7, align 8, !tbaa !3
  call void @llvm.lifetime.end.p0(i64 8, ptr %7) #7
  ret ptr %26
}