; Function Attrs: mustprogress nofree norecurse nosync nounwind memory(argmem: readwrite) uwtable
define noundef ptr @u_strncpy_77(ptr noundef returned writeonly %0, ptr noundef readonly captures(none) %1, i32 noundef %2) local_unnamed_addr #5 {
  %4 = icmp sgt i32 %2, 0
  br i1 %4, label %.lr.ph, label %.critedge

.lr.ph:                                           ; preds = %3, %.lr.ph
  %.09 = phi ptr [ %6, %.lr.ph ], [ %0, %3 ]
  %.058 = phi i32 [ %8, %.lr.ph ], [ %2, %3 ]
  %.067 = phi ptr [ %7, %.lr.ph ], [ %1, %3 ]
  %5 = load i16, ptr %.067, align 2, !tbaa !3
  store i16 %5, ptr %.09, align 2, !tbaa !3
  %.not = icmp ne i16 %5, 0
  %6 = getelementptr inbounds nuw i8, ptr %.09, i64 2
  %7 = getelementptr inbounds nuw i8, ptr %.067, i64 2
  %8 = add nsw i32 %.058, -1
  %9 = icmp samesign ugt i32 %.058, 1
  %or.cond = select i1 %.not, i1 %9, i1 false
  br i1 %or.cond, label %.lr.ph, label %.critedge, !llvm.loop !52

.critedge:                                        ; preds = %.lr.ph, %3
  ret ptr %0
}